; Function Attrs: mustprogress uwtable
define void @_ZN11BigUnsignedC2Em(ptr noundef nonnull writeonly align 8 captures(none) dereferenceable(16) initializes((0, 16)) %0, i64 noundef %1) unnamed_addr #0 align 2 personality ptr @__gxx_personality_v0 {
  tail call void @llvm.memset.p0.i64(ptr noundef nonnull align 8 dereferenceable(16) %0, i8 0, i64 16, i1 false)
  %3 = icmp eq i64 %1, 0
  br i1 %3, label %_ZN11BigUnsigned17initFromPrimitiveImEEvT_.exit, label %.noexc

.noexc:                                           ; preds = %2
  store i32 1, ptr %0, align 8, !tbaa !6
  %4 = tail call noalias noundef nonnull dereferenceable(8) ptr @_Znam(i64 noundef 8) #8
  %5 = getelementptr inbounds nuw i8, ptr %0, i64 8
  store ptr %4, ptr %5, align 8, !tbaa !13
  %6 = getelementptr inbounds nuw i8, ptr %0, i64 4
  store i32 1, ptr %6, align 4, !tbaa !14
  store i64 %1, ptr %4, align 8, !tbaa !15
  br label %_ZN11BigUnsigned17initFromPrimitiveImEEvT_.exit

_ZN11BigUnsigned17initFromPrimitiveImEEvT_.exit:  ; preds = %.noexc, %2
  ret void
}